target datalayout = "e-m:e-p270:32:32-p271:32:32-p272:64:64-i64:64-i128:128-f80:128-n8:16:32:64-S128"
target triple = "x86_64-pc-linux-gnu"

%struct.strbuf = type { i64, i64, ptr }
%struct.ipc_client_connection = type { i32 }

@.str = private unnamed_addr constant [36 x i8] c"compat/simple-ipc/ipc-unix-socket.c\00", align 1
@.str.1 = private unnamed_addr constant [11 x i8] c"ipc-client\00", align 1
@.str.5 = private unnamed_addr constant [13 x i8] c"send-command\00", align 1
@.str.6 = private unnamed_addr constant [27 x i8] c"could not send IPC command\00", align 1
@.str.7 = private unnamed_addr constant [28 x i8] c"could not read IPC response\00", align 1
@.str.16 = private unnamed_addr constant [11 x i8] c"./strbuf.h\00", align 1
@.str.17 = private unnamed_addr constant [30 x i8] c"strbuf_setlen() beyond buffer\00", align 1
@strbuf_slopbuf = external global [0 x i8], align 1
@.str.18 = private unnamed_addr constant [1 x i8] zeroinitializer, align 1
@git_gettext_enabled = external global i32, align 4

; Function Attrs: inlinehint nounwind uwtable
define internal i32 @const_error() #6 {
  ret i32 -1
}

; Function Attrs: inlinehint nounwind uwtable
define internal ptr @_(ptr noundef %0) #6 {
  %2 = alloca ptr, align 8
  %3 = alloca ptr, align 8
  store ptr %0, ptr %3, align 8, !tbaa !4
  %4 = load ptr, ptr %3, align 8, !tbaa !4
  %5 = load i8, ptr %4, align 1, !tbaa !34
  %6 = icmp ne i8 %5, 0
  br i1 %6, label %8, label %7

7:                                                ; preds = %1
  store ptr @.str.18, ptr %2, align 8
  br label %16

8:                                                ; preds = %1
  %9 = load i32, ptr @git_gettext_enabled, align 4, !tbaa !9
  %10 = icmp ne i32 %9, 0
  br i1 %10, label %13, label %11

11:                                               ; preds = %8
  %12 = load ptr, ptr %3, align 8, !tbaa !4
  store ptr %12, ptr %2, align 8
  br label %16

13:                                               ; preds = %8
  %14 = load ptr, ptr %3, align 8, !tbaa !4
  %15 = call ptr @dcgettext(ptr noundef null, ptr noundef %14, i32 noundef 5) #10
  store ptr %15, ptr %2, align 8
  br label %16

16:                                               ; preds = %13, %11, %7
  %17 = load ptr, ptr %2, align 8
  ret ptr %17
}

; Function Attrs: inlinehint nounwind uwtable
define internal i32 @write_packetized_from_buf_no_flush(ptr noundef %0, i64 noundef %1, i32 noundef %2) #6 {
  %4 = alloca ptr, align 8
  %5 = alloca i64, align 8
  %6 = alloca i32, align 4
  store ptr %0, ptr %4, align 8, !tbaa !4
  store i64 %1, ptr %5, align 8, !tbaa !27
  store i32 %2, ptr %6, align 4, !tbaa !9
  %7 = load ptr, ptr %4, align 8, !tbaa !4
  %8 = load i64, ptr %5, align 8, !tbaa !27
  %9 = load i32, ptr %6, align 4, !tbaa !9
  %10 = call i32 @write_packetized_from_buf_no_flush_count(ptr noundef %7, i64 noundef %8, i32 noundef %9, ptr noundef null)
  ret i32 %10
}

; Function Attrs: inlinehint nounwind uwtable
define internal void @strbuf_setlen(ptr noundef %0, i64 noundef %1) #6 {
  %3 = alloca ptr, align 8
  %4 = alloca i64, align 8
  store ptr %0, ptr %3, align 8, !tbaa !28
  store i64 %1, ptr %4, align 8, !tbaa !27
  %5 = load i64, ptr %4, align 8, !tbaa !27
  %6 = load ptr, ptr %3, align 8, !tbaa !28
  %7 = getelementptr inbounds nuw %struct.strbuf, ptr %6, i32 0, i32 0
  %8 = load i64, ptr %7, align 8, !tbaa !30
  %9 = icmp ne i64 %8, 0
  br i1 %9, label %10, label %15

10:                                               ; preds = %2
  %11 = load ptr, ptr %3, align 8, !tbaa !28
  %12 = getelementptr inbounds nuw %struct.strbuf, ptr %11, i32 0, i32 0
  %13 = load i64, ptr %12, align 8, !tbaa !30
  %14 = sub i64 %13, 1
  br label %16

15:                                               ; preds = %2
  br label %16

16:                                               ; preds = %15, %10
  %17 = phi i64 [ %14, %10 ], [ 0, %15 ]
  %18 = icmp ugt i64 %5, %17
  br i1 %18, label %19, label %20

19:                                               ; preds = %16
  call void (ptr, i32, ptr, ...) @BUG_fl(ptr noundef @.str.16, i32 noundef 167, ptr noundef @.str.17) #12
  unreachable

20:                                               ; preds = %16
  %21 = load i64, ptr %4, align 8, !tbaa !27
  %22 = load ptr, ptr %3, align 8, !tbaa !28
  %23 = getelementptr inbounds nuw %struct.strbuf, ptr %22, i32 0, i32 1
  store i64 %21, ptr %23, align 8, !tbaa !32
  %24 = load ptr, ptr %3, align 8, !tbaa !28
  %25 = getelementptr inbounds nuw %struct.strbuf, ptr %24, i32 0, i32 2
  %26 = load ptr, ptr %25, align 8, !tbaa !33
  %27 = icmp ne ptr %26, @strbuf_slopbuf
  br i1 %27, label %28, label %34

28:                                               ; preds = %20
  %29 = load ptr, ptr %3, align 8, !tbaa !28
  %30 = getelementptr inbounds nuw %struct.strbuf, ptr %29, i32 0, i32 2
  %31 = load ptr, ptr %30, align 8, !tbaa !33
  %32 = load i64, ptr %4, align 8, !tbaa !27
  %33 = getelementptr inbounds nuw i8, ptr %31, i64 %32
  store i8 0, ptr %33, align 1, !tbaa !34
  br label %35

34:                                               ; preds = %20
  br label %35

35:                                               ; preds = %34, %28
  ret void
}

; Function Attrs: nounwind uwtable
define dso_local i32 @ipc_client_send_command_to_connection(ptr noundef %0, ptr noundef %1, i64 noundef %2, ptr noundef %3) #0 {
  %5 = alloca ptr, align 8
  %6 = alloca ptr, align 8
  %7 = alloca i64, align 8
  %8 = alloca ptr, align 8
  %9 = alloca i32, align 4
  store ptr %0, ptr %5, align 8, !tbaa !11
  store ptr %1, ptr %6, align 8, !tbaa !4
  store i64 %2, ptr %7, align 8, !tbaa !27
  store ptr %3, ptr %8, align 8, !tbaa !28
  call void @llvm.lifetime.start.p0(i64 4, ptr %9) #10
  store i32 0, ptr %9, align 4, !tbaa !9
  %10 = load ptr, ptr %8, align 8, !tbaa !28
  call void @strbuf_setlen(ptr noundef %10, i64 noundef 0)
  call void (ptr, i32, ptr, ptr, ptr, ...) @trace2_region_enter_fl(ptr noundef @.str, i32 noundef 201, ptr noundef @.str.1, ptr noundef @.str.5, ptr noundef null)
  %11 = load ptr, ptr %6, align 8, !tbaa !4
  %12 = load i64, ptr %7, align 8, !tbaa !27
  %13 = load ptr, ptr %5, align 8, !tbaa !11
  %14 = getelementptr inbounds nuw %struct.ipc_client_connection, ptr %13, i32 0, i32 0
  %15 = load i32, ptr %14, align 4, !tbaa !21
  %16 = call i32 @write_packetized_from_buf_no_flush(ptr noundef %11, i64 noundef %12, i32 noundef %15)
  %17 = icmp slt i32 %16, 0
  br i1 %17, label %24, label %18

18:                                               ; preds = %4
  %19 = load ptr, ptr %5, align 8, !tbaa !11
  %20 = getelementptr inbounds nuw %struct.ipc_client_connection, ptr %19, i32 0, i32 0
  %21 = load i32, ptr %20, align 4, !tbaa !21
  %22 = call i32 @packet_flush_gently(i32 noundef %21)
  %23 = icmp slt i32 %22, 0
  br i1 %23, label %24, label %28

24:                                               ; preds = %18, %4
  %25 = call ptr @_(ptr noundef @.str.6)
  %26 = call i32 (ptr, ...) @error(ptr noundef %25)
  %27 = call i32 @const_error()
  store i32 %27, ptr %9, align 4, !tbaa !9
  br label %40

28:                                               ; preds = %18
  %29 = load ptr, ptr %5, align 8, !tbaa !11
  %30 = getelementptr inbounds nuw %struct.ipc_client_connection, ptr %29, i32 0, i32 0
  %31 = load i32, ptr %30, align 4, !tbaa !21
  %32 = load ptr, ptr %8, align 8, !tbaa !28
  %33 = call i64 @read_packetized_to_strbuf(i32 noundef %31, ptr noundef %32, i32 noundef 9)
  %34 = icmp slt i64 %33, 0
  br i1 %34, label %35, label %39

35:                                               ; preds = %28
  %36 = call ptr @_(ptr noundef @.str.7)
  %37 = call i32 (ptr, ...) @error(ptr noundef %36)
  %38 = call i32 @const_error()
  store i32 %38, ptr %9, align 4, !tbaa !9
  br label %40

39:                                               ; preds = %28
  br label %40

40:                                               ; preds = %39, %35, %24
  call void (ptr, i32, ptr, ptr, ptr, ...) @trace2_region_leave_fl(ptr noundef @.str, i32 noundef 218, ptr noundef @.str.1, ptr noundef @.str.5, ptr noundef null)
  %41 = load i32, ptr %9, align 4, !tbaa !9
  call void @llvm.lifetime.end.p0(i64 4, ptr %9) #10
  ret i32 %41
}