; Function Attrs: nounwind uwtable
define dso_local range(i32 -1, 1) i32 @ipc_client_send_command_to_connection(ptr noundef readonly captures(none) %0, ptr noundef %1, i64 noundef %2, ptr noundef initializes((8, 16)) %3) local_unnamed_addr #0 {
  %5 = getelementptr inbounds nuw i8, ptr %3, i64 8
  store i64 0, ptr %5, align 8, !tbaa !19
  %6 = getelementptr inbounds nuw i8, ptr %3, i64 16
  %7 = load ptr, ptr %6, align 8, !tbaa !22
  %.not9.i = icmp eq ptr %7, @strbuf_slopbuf
  br i1 %.not9.i, label %strbuf_setlen.exit, label %8

8:                                                ; preds = %4
  store i8 0, ptr %7, align 1, !tbaa !23
  br label %strbuf_setlen.exit

strbuf_setlen.exit:                               ; preds = %4, %8
  tail call void (ptr, i32, ptr, ptr, ptr, ...) @trace2_region_enter_fl(ptr noundef nonnull @.str, i32 noundef 201, ptr noundef nonnull @.str.1, ptr noundef nonnull @.str.5, ptr noundef null) #13
  %9 = load i32, ptr %0, align 4, !tbaa !15
  %10 = tail call i32 @write_packetized_from_buf_no_flush_count(ptr noundef %1, i64 noundef %2, i32 noundef %9, ptr noundef null) #13
  %11 = icmp slt i32 %10, 0
  br i1 %11, label %16, label %12

12:                                               ; preds = %strbuf_setlen.exit
  %13 = load i32, ptr %0, align 4, !tbaa !15
  %14 = tail call i32 @packet_flush_gently(i32 noundef %13) #13
  %15 = icmp slt i32 %14, 0
  br i1 %15, label %16, label %18

16:                                               ; preds = %12, %strbuf_setlen.exit
  %17 = load i32, ptr @git_gettext_enabled, align 4, !tbaa !4
  %.not4.i = icmp eq i32 %17, 0
  br i1 %.not4.i, label %.sink.split, label %.sink.split.sink.split

18:                                               ; preds = %12
  %19 = load i32, ptr %0, align 4, !tbaa !15
  %20 = tail call i64 @read_packetized_to_strbuf(i32 noundef %19, ptr noundef nonnull %3, i32 noundef 9) #13
  %21 = icmp slt i64 %20, 0
  br i1 %21, label %22, label %26

22:                                               ; preds = %18
  %23 = load i32, ptr @git_gettext_enabled, align 4, !tbaa !4
  %.not4.i7 = icmp eq i32 %23, 0
  br i1 %.not4.i7, label %.sink.split, label %.sink.split.sink.split

.sink.split.sink.split:                           ; preds = %22, %16
  %.str.7.sink = phi ptr [ @.str.6, %16 ], [ @.str.7, %22 ]
  %24 = tail call ptr @dcgettext(ptr noundef null, ptr noundef nonnull %.str.7.sink, i32 noundef 5) #13
  br label %.sink.split

.sink.split:                                      ; preds = %.sink.split.sink.split, %22, %16
  %.0.i8.sink = phi ptr [ @.str.6, %16 ], [ @.str.7, %22 ], [ %24, %.sink.split.sink.split ]
  %25 = tail call i32 (ptr, ...) @error(ptr noundef %.0.i8.sink) #13
  br label %26

26:                                               ; preds = %.sink.split, %18
  %.0 = phi i32 [ 0, %18 ], [ -1, %.sink.split ]
  tail call void (ptr, i32, ptr, ptr, ptr, ...) @trace2_region_leave_fl(ptr noundef nonnull @.str, i32 noundef 218, ptr noundef nonnull @.str.1, ptr noundef nonnull @.str.5, ptr noundef null) #13
  ret i32 %.0
}